; Function Attrs: mustprogress uwtable
define hidden void @_ZN3sat9lookahead10add_clauseERKNS_6clauseE(ptr noundef nonnull align 8 dereferenceable(1160) %this, ptr noundef nonnull readonly align 4 dereferenceable(20) %c) local_unnamed_addr #3 align 2 {
entry:
  %m_allocator = getelementptr inbounds i8, ptr %this, i64 256
  %m_size.i = getelementptr inbounds i8, ptr %c, i64 4
  %0 = load i32, ptr %m_size.i, align 4
  %conv.i = zext i32 %0 to i64
  %mul.i = shl nuw nsw i64 %conv.i, 2
  %add.i = add nuw nsw i64 %mul.i, 24
  %call3 = tail call noundef ptr @_ZN22small_object_allocator8allocateEm(ptr noundef nonnull align 8 dereferenceable(520) %m_allocator, i64 noundef %add.i)
  %1 = load i32, ptr %m_size.i, align 4
  %m_lits.i.ptr = getelementptr inbounds i8, ptr %c, i64 20
  store i32 %1, ptr %call3, align 8
  %m_obj_size.i = getelementptr inbounds i8, ptr %call3, i64 8
  %conv.i.i = zext i32 %1 to i64
  %mul.i.i = shl nuw nsw i64 %conv.i.i, 2
  %add.i.i = add nuw nsw i64 %mul.i.i, 24
  store i64 %add.i.i, ptr %m_obj_size.i, align 8
  %m_head.i = getelementptr inbounds i8, ptr %call3, i64 16
  store i32 -2, ptr %m_head.i, align 4
  %cmp7.not.i = icmp eq i32 %1, 0
  br i1 %cmp7.not.i, label %_ZN3sat9lookahead4naryC2EjPKNS_7literalE.exit, label %for.body.lr.ph.i

for.body.lr.ph.i:                                 ; preds = %entry
  %m_literals.i = getelementptr inbounds i8, ptr %call3, i64 20
  br label %for.body.i

for.body.i:                                       ; preds = %for.body.i, %for.body.lr.ph.i
  %indvars.iv.i = phi i64 [ 0, %for.body.lr.ph.i ], [ %indvars.iv.next.i, %for.body.i ]
  %arrayidx.i = getelementptr inbounds %"class.sat::literal", ptr %m_lits.i.ptr, i64 %indvars.iv.i
  %arrayidx3.i = getelementptr inbounds [0 x %"class.sat::literal"], ptr %m_literals.i, i64 0, i64 %indvars.iv.i
  %2 = load i32, ptr %arrayidx.i, align 4
  store i32 %2, ptr %arrayidx3.i, align 4
  %indvars.iv.next.i = add nuw nsw i64 %indvars.iv.i, 1
  %exitcond.not.i = icmp eq i64 %indvars.iv.next.i, %conv.i.i
  br i1 %exitcond.not.i, label %_ZN3sat9lookahead4naryC2EjPKNS_7literalE.exit, label %for.body.i, !llvm.loop !57

_ZN3sat9lookahead4naryC2EjPKNS_7literalE.exit:    ; preds = %for.body.i, %entry
  %3 = load i32, ptr %m_lits.i.ptr, align 4
  store i32 %3, ptr %m_head.i, align 8
  %m_nary_clauses = getelementptr inbounds i8, ptr %this, i64 784
  %4 = load ptr, ptr %m_nary_clauses, align 8
  %cmp.i = icmp eq ptr %4, null
  br i1 %cmp.i, label %if.then.i, label %lor.lhs.false.i

lor.lhs.false.i:                                  ; preds = %_ZN3sat9lookahead4naryC2EjPKNS_7literalE.exit
  %arrayidx.i8 = getelementptr inbounds i8, ptr %4, i64 -4
  %5 = load i32, ptr %arrayidx.i8, align 4
  %arrayidx4.i = getelementptr inbounds i8, ptr %4, i64 -8
  %6 = load i32, ptr %arrayidx4.i, align 4
  %cmp5.i = icmp eq i32 %5, %6
  br i1 %cmp5.i, label %if.then.i, label %_ZN6vectorIPN3sat9lookahead4naryELb0EjE9push_backERKS3_.exit

if.then.i:                                        ; preds = %lor.lhs.false.i, %_ZN3sat9lookahead4naryC2EjPKNS_7literalE.exit
  tail call void @_ZN6vectorIPN3sat9lookahead4naryELb0EjE13expand_vectorEv(ptr noundef nonnull align 8 dereferenceable(8) %m_nary_clauses)
  %.pre.i = load ptr, ptr %m_nary_clauses, align 8
  %arrayidx8.phi.trans.insert.i = getelementptr inbounds i8, ptr %.pre.i, i64 -4
  %.pre1.i = load i32, ptr %arrayidx8.phi.trans.insert.i, align 4
  br label %_ZN6vectorIPN3sat9lookahead4naryELb0EjE9push_backERKS3_.exit

_ZN6vectorIPN3sat9lookahead4naryELb0EjE9push_backERKS3_.exit: ; preds = %lor.lhs.false.i, %if.then.i
  %7 = phi i32 [ %.pre1.i, %if.then.i ], [ %5, %lor.lhs.false.i ]
  %8 = phi ptr [ %.pre.i, %if.then.i ], [ %4, %lor.lhs.false.i ]
  %idx.ext.i = zext i32 %7 to i64
  %add.ptr.i = getelementptr inbounds ptr, ptr %8, i64 %idx.ext.i
  store ptr %call3, ptr %add.ptr.i, align 8
  %9 = load ptr, ptr %m_nary_clauses, align 8
  %arrayidx10.i = getelementptr inbounds i8, ptr %9, i64 -4
  %10 = load i32, ptr %arrayidx10.i, align 4
  %inc.i = add i32 %10, 1
  store i32 %inc.i, ptr %arrayidx10.i, align 4
  %11 = load i32, ptr %m_size.i, align 4
  %idx.ext.i12 = zext i32 %11 to i64
  %add.ptr.i13.idx = shl nuw nsw i64 %idx.ext.i12, 2
  %12 = getelementptr i8, ptr %c, i64 %add.ptr.i13.idx
  %add.ptr.i13.ptr = getelementptr i8, ptr %12, i64 20
  %cmp.not33 = icmp eq i32 %11, 0
  br i1 %cmp.not33, label %for.end, label %for.body.lr.ph

for.body.lr.ph:                                   ; preds = %_ZN6vectorIPN3sat9lookahead4naryELb0EjE9push_backERKS3_.exit
  %m_nary = getelementptr inbounds i8, ptr %this, i64 776
  %m_nary_count = getelementptr inbounds i8, ptr %this, i64 792
  br label %for.body

for.body:                                         ; preds = %for.body.lr.ph, %_ZN6vectorIPN3sat9lookahead4naryELb0EjE9push_backERKS3_.exit28
  %__begin1.034 = phi ptr [ %m_lits.i.ptr, %for.body.lr.ph ], [ %incdec.ptr, %_ZN6vectorIPN3sat9lookahead4naryELb0EjE9push_backERKS3_.exit28 ]
  %13 = load i32, ptr %__begin1.034, align 4
  %14 = load ptr, ptr %m_nary, align 8
  %idxprom.i = zext i32 %13 to i64
  %arrayidx.i14 = getelementptr inbounds %class.ptr_vector.8, ptr %14, i64 %idxprom.i
  %15 = load ptr, ptr %arrayidx.i14, align 8
  %cmp.i15 = icmp eq ptr %15, null
  br i1 %cmp.i15, label %if.then.i24, label %lor.lhs.false.i16

lor.lhs.false.i16:                                ; preds = %for.body
  %arrayidx.i17 = getelementptr inbounds i8, ptr %15, i64 -4
  %16 = load i32, ptr %arrayidx.i17, align 4
  %arrayidx4.i18 = getelementptr inbounds i8, ptr %15, i64 -8
  %17 = load i32, ptr %arrayidx4.i18, align 4
  %cmp5.i19 = icmp eq i32 %16, %17
  br i1 %cmp5.i19, label %if.then.i24, label %_ZN6vectorIPN3sat9lookahead4naryELb0EjE9push_backERKS3_.exit28

if.then.i24:                                      ; preds = %lor.lhs.false.i16, %for.body
  tail call void @_ZN6vectorIPN3sat9lookahead4naryELb0EjE13expand_vectorEv(ptr noundef nonnull align 8 dereferenceable(8) %arrayidx.i14)
  %.pre.i25 = load ptr, ptr %arrayidx.i14, align 8
  %arrayidx8.phi.trans.insert.i26 = getelementptr inbounds i8, ptr %.pre.i25, i64 -4
  %.pre1.i27 = load i32, ptr %arrayidx8.phi.trans.insert.i26, align 4
  br label %_ZN6vectorIPN3sat9lookahead4naryELb0EjE9push_backERKS3_.exit28

_ZN6vectorIPN3sat9lookahead4naryELb0EjE9push_backERKS3_.exit28: ; preds = %lor.lhs.false.i16, %if.then.i24
  %18 = phi i32 [ %.pre1.i27, %if.then.i24 ], [ %16, %lor.lhs.false.i16 ]
  %19 = phi ptr [ %.pre.i25, %if.then.i24 ], [ %15, %lor.lhs.false.i16 ]
  %idx.ext.i20 = zext i32 %18 to i64
  %add.ptr.i21 = getelementptr inbounds ptr, ptr %19, i64 %idx.ext.i20
  store ptr %call3, ptr %add.ptr.i21, align 8
  %20 = load ptr, ptr %arrayidx.i14, align 8
  %arrayidx10.i22 = getelementptr inbounds i8, ptr %20, i64 -4
  %21 = load i32, ptr %arrayidx10.i22, align 4
  %inc.i23 = add i32 %21, 1
  store i32 %inc.i23, ptr %arrayidx10.i22, align 4
  %22 = load ptr, ptr %m_nary_count, align 8
  %arrayidx.i30 = getelementptr inbounds i32, ptr %22, i64 %idxprom.i
  %23 = load i32, ptr %arrayidx.i30, align 4
  %inc = add i32 %23, 1
  store i32 %inc, ptr %arrayidx.i30, align 4
  %incdec.ptr = getelementptr inbounds i8, ptr %__begin1.034, i64 4
  %cmp.not = icmp eq ptr %incdec.ptr, %add.ptr.i13.ptr
  br i1 %cmp.not, label %for.end, label %for.body

for.end:                                          ; preds = %_ZN6vectorIPN3sat9lookahead4naryELb0EjE9push_backERKS3_.exit28, %_ZN6vectorIPN3sat9lookahead4naryELb0EjE9push_backERKS3_.exit
  ret void
}